; Function Attrs: nounwind uwtable
define dso_local void @fd_set_noclose_on_exec(i32 noundef %0) local_unnamed_addr #0 {
  %2 = tail call i32 (i32, i32, ...) @fcntl(i32 noundef %0, i32 noundef 2, i32 noundef 0) #10
  %3 = icmp slt i32 %2, 0
  br i1 %3, label %4, label %6

4:                                                ; preds = %1
  %5 = tail call i32 (ptr, ...) @error(ptr noundef nonnull @.str.2) #10
  br label %6

6:                                                ; preds = %4, %1
  ret void
}